target datalayout = "e-m:e-p270:32:32-p271:32:32-p272:64:64-i64:64-i128:128-f80:128-n8:16:32:64-S128"
target triple = "x86_64-pc-linux-gnu"

%struct.Abc_Frame_t_ = type { ptr, ptr, ptr, ptr, ptr, ptr, ptr, ptr, ptr, ptr, i32, i32, i32, i32, i32, ptr, float, float, i32, i32, ptr, ptr, ptr, double, double, ptr, ptr, ptr, ptr, ptr, ptr, ptr, ptr, ptr, ptr, ptr, ptr, float, ptr, i32, ptr, ptr, ptr, ptr, ptr, i32, i32, i32, i32, i32, i32, ptr, ptr, ptr, ptr, ptr, ptr, i32, i32, ptr, ptr, ptr, ptr, ptr, ptr, ptr, ptr, ptr, ptr, ptr, ptr, ptr, ptr, ptr, ptr, ptr, ptr, ptr, ptr, ptr, ptr, ptr, ptr, ptr, ptr, ptr, ptr, ptr, ptr }

@.str.31 = private unnamed_addr constant [4 x i8] c"yes\00", align 1
@.str.32 = private unnamed_addr constant [3 x i8] c"no\00", align 1
@.str.34 = private unnamed_addr constant [62 x i8] c"\09-v     : toggle printing verbose information [default = %s]\0A\00", align 1
@.str.35 = private unnamed_addr constant [35 x i8] c"\09-h     : print the command usage\0A\00", align 1
@.str.65 = private unnamed_addr constant [4 x i8] c"bvh\00", align 1
@.str.66 = private unnamed_addr constant [47 x i8] c"Bac_CommandPut(): There is no current design.\0A\00", align 1
@.str.67 = private unnamed_addr constant [49 x i8] c"Bac_CommandPut(): Conversion to AIG has failed.\0A\00", align 1
@.str.68 = private unnamed_addr constant [21 x i8] c"usage: @_put [-bvh]\0A\00", align 1
@.str.69 = private unnamed_addr constant [53 x i8] c"\09         extracts AIG from the hierarchical design\0A\00", align 1
@.str.70 = private unnamed_addr constant [55 x i8] c"\09-b     : toggle using barrier buffers [default = %s]\0A\00", align 1

; Function Attrs: inlinehint nounwind uwtable
define internal ptr @Bac_AbcGetMan(ptr noundef %0) #3 {
  %2 = alloca ptr, align 8
  store ptr %0, ptr %2, align 8, !tbaa !10
  %3 = load ptr, ptr %2, align 8, !tbaa !10
  %4 = getelementptr inbounds nuw %struct.Abc_Frame_t_, ptr %3, i32 0, i32 74
  %5 = load ptr, ptr %4, align 8, !tbaa !12
  ret ptr %5
}

; Function Attrs: nounwind uwtable
define internal i32 @Bac_CommandPut(ptr noundef %0, i32 noundef %1, ptr noundef %2) #0 {
  %4 = alloca i32, align 4
  %5 = alloca ptr, align 8
  %6 = alloca i32, align 4
  %7 = alloca ptr, align 8
  %8 = alloca ptr, align 8
  %9 = alloca ptr, align 8
  %10 = alloca i32, align 4
  %11 = alloca i32, align 4
  %12 = alloca i32, align 4
  %13 = alloca i32, align 4
  store ptr %0, ptr %5, align 8, !tbaa !10
  store i32 %1, ptr %6, align 4, !tbaa !28
  store ptr %2, ptr %7, align 8, !tbaa !29
  call void @llvm.lifetime.start.p0(i64 8, ptr %8) #10
  %14 = load ptr, ptr %5, align 8, !tbaa !10
  %15 = call ptr @Bac_AbcGetMan(ptr noundef %14)
  store ptr %15, ptr %8, align 8, !tbaa !8
  call void @llvm.lifetime.start.p0(i64 8, ptr %9) #10
  store ptr null, ptr %9, align 8, !tbaa !51
  call void @llvm.lifetime.start.p0(i64 4, ptr %10) #10
  call void @llvm.lifetime.start.p0(i64 4, ptr %11) #10
  store i32 1, ptr %11, align 4, !tbaa !28
  call void @llvm.lifetime.start.p0(i64 4, ptr %12) #10
  store i32 0, ptr %12, align 4, !tbaa !28
  call void (...) @Extra_UtilGetoptReset()
  br label %16

16:                                               ; preds = %31, %3
  %17 = load i32, ptr %6, align 4, !tbaa !28
  %18 = load ptr, ptr %7, align 8, !tbaa !29
  %19 = call i32 @Extra_UtilGetopt(i32 noundef %17, ptr noundef %18, ptr noundef @.str.65)
  store i32 %19, ptr %10, align 4, !tbaa !28
  %20 = icmp ne i32 %19, -1
  br i1 %20, label %21, label %32

21:                                               ; preds = %16
  %22 = load i32, ptr %10, align 4, !tbaa !28
  switch i32 %22, label %30 [
    i32 98, label %23
    i32 118, label %26
    i32 104, label %29
  ]

23:                                               ; preds = %21
  %24 = load i32, ptr %11, align 4, !tbaa !28
  %25 = xor i32 %24, 1
  store i32 %25, ptr %11, align 4, !tbaa !28
  br label %31

26:                                               ; preds = %21
  %27 = load i32, ptr %12, align 4, !tbaa !28
  %28 = xor i32 %27, 1
  store i32 %28, ptr %12, align 4, !tbaa !28
  br label %31

29:                                               ; preds = %21
  br label %47

30:                                               ; preds = %21
  br label %47

31:                                               ; preds = %26, %23
  br label %16, !llvm.loop !52

32:                                               ; preds = %16
  %33 = load ptr, ptr %8, align 8, !tbaa !8
  %34 = icmp eq ptr %33, null
  br i1 %34, label %35, label %36

35:                                               ; preds = %32
  call void (i32, ptr, ...) @Abc_Print(i32 noundef 1, ptr noundef @.str.66)
  store i32 0, ptr %4, align 4
  store i32 1, ptr %13, align 4
  br label %54

36:                                               ; preds = %32
  %37 = load ptr, ptr %8, align 8, !tbaa !8
  %38 = load i32, ptr %11, align 4, !tbaa !28
  %39 = load i32, ptr %12, align 4, !tbaa !28
  %40 = call ptr @Bac_ManExtract(ptr noundef %37, i32 noundef %38, i32 noundef %39)
  store ptr %40, ptr %9, align 8, !tbaa !51
  %41 = load ptr, ptr %9, align 8, !tbaa !51
  %42 = icmp eq ptr %41, null
  br i1 %42, label %43, label %44

43:                                               ; preds = %36
  call void (i32, ptr, ...) @Abc_Print(i32 noundef 1, ptr noundef @.str.67)
  store i32 0, ptr %4, align 4
  store i32 1, ptr %13, align 4
  br label %54

44:                                               ; preds = %36
  %45 = load ptr, ptr %5, align 8, !tbaa !10
  %46 = load ptr, ptr %9, align 8, !tbaa !51
  call void @Abc_FrameUpdateGia(ptr noundef %45, ptr noundef %46)
  store i32 0, ptr %4, align 4
  store i32 1, ptr %13, align 4
  br label %54

47:                                               ; preds = %30, %29
  call void (i32, ptr, ...) @Abc_Print(i32 noundef -2, ptr noundef @.str.68)
  call void (i32, ptr, ...) @Abc_Print(i32 noundef -2, ptr noundef @.str.69)
  %48 = load i32, ptr %11, align 4, !tbaa !28
  %49 = icmp ne i32 %48, 0
  %50 = select i1 %49, ptr @.str.31, ptr @.str.32
  call void (i32, ptr, ...) @Abc_Print(i32 noundef -2, ptr noundef @.str.70, ptr noundef %50)
  %51 = load i32, ptr %12, align 4, !tbaa !28
  %52 = icmp ne i32 %51, 0
  %53 = select i1 %52, ptr @.str.31, ptr @.str.32
  call void (i32, ptr, ...) @Abc_Print(i32 noundef -2, ptr noundef @.str.34, ptr noundef %53)
  call void (i32, ptr, ...) @Abc_Print(i32 noundef -2, ptr noundef @.str.35)
  store i32 1, ptr %4, align 4
  store i32 1, ptr %13, align 4
  br label %54

54:                                               ; preds = %47, %44, %43, %35
  call void @llvm.lifetime.end.p0(i64 4, ptr %12) #10
  call void @llvm.lifetime.end.p0(i64 4, ptr %11) #10
  call void @llvm.lifetime.end.p0(i64 4, ptr %10) #10
  call void @llvm.lifetime.end.p0(i64 8, ptr %9) #10
  call void @llvm.lifetime.end.p0(i64 8, ptr %8) #10
  %55 = load i32, ptr %4, align 4
  ret i32 %55
}